; Function Attrs: mustprogress uwtable
define hidden void @_ZNK4cvc58internal6String9toWStringB5cxx11Ev(ptr noalias sret(%"class.std::__cxx11::basic_string") align 8 %agg.result, ptr nocapture noundef nonnull readonly align 8 dereferenceable(24) %this) local_unnamed_addr #3 align 2 personality ptr @__gxx_personality_v0 {
entry:
  %ref.tmp = alloca %"class.std::allocator.0", align 1
  %_M_finish.i.i = getelementptr inbounds i8, ptr %this, i64 8
  %0 = load ptr, ptr %_M_finish.i.i, align 8
  %1 = load ptr, ptr %this, align 8
  %sub.ptr.lhs.cast.i.i = ptrtoint ptr %0 to i64
  %sub.ptr.rhs.cast.i.i = ptrtoint ptr %1 to i64
  %sub.ptr.sub.i.i = sub i64 %sub.ptr.lhs.cast.i.i, %sub.ptr.rhs.cast.i.i
  %sub.ptr.div.i.i = ashr exact i64 %sub.ptr.sub.i.i, 2
  call void @_ZNSaIwEC1Ev(ptr noundef nonnull align 1 dereferenceable(1) %ref.tmp) #18
  %call.i5 = invoke noundef ptr @_ZNSt7__cxx1112basic_stringIwSt11char_traitsIwESaIwEE13_M_local_dataEv(ptr noundef nonnull align 8 dereferenceable(32) %agg.result)
          to label %call.i.noexc unwind label %lpad

call.i.noexc:                                     ; preds = %entry
  invoke void @_ZNSt7__cxx1112basic_stringIwSt11char_traitsIwESaIwEE12_Alloc_hiderC1EPwRKS3_(ptr noundef nonnull align 8 dereferenceable(8) %agg.result, ptr noundef %call.i5, ptr noundef nonnull align 1 dereferenceable(1) %ref.tmp)
          to label %.noexc unwind label %lpad

.noexc:                                           ; preds = %call.i.noexc
  invoke void @_ZNSt7__cxx1112basic_stringIwSt11char_traitsIwESaIwEE12_M_constructEmw(ptr noundef nonnull align 8 dereferenceable(32) %agg.result, i64 noundef %sub.ptr.div.i.i, i32 noundef signext 0)
          to label %invoke.cont unwind label %lpad.i

lpad.i:                                           ; preds = %.noexc
  %2 = landingpad { ptr, i32 }
          cleanup
  call void @_ZNSaIwED2Ev(ptr noundef nonnull align 1 dereferenceable(1) %agg.result) #18
  br label %lpad.body

invoke.cont:                                      ; preds = %.noexc
  call void @_ZNSaIwED1Ev(ptr noundef nonnull align 1 dereferenceable(1) %ref.tmp) #18
  %3 = load ptr, ptr %_M_finish.i.i, align 8
  %4 = load ptr, ptr %this, align 8
  %cmp15.not = icmp eq ptr %3, %4
  br i1 %cmp15.not, label %nrvo.skipdtor, label %for.body

for.body:                                         ; preds = %invoke.cont, %invoke.cont6
  %5 = phi ptr [ %8, %invoke.cont6 ], [ %4, %invoke.cont ]
  %i.016 = phi i64 [ %inc, %invoke.cont6 ], [ 0, %invoke.cont ]
  %add.ptr.i = getelementptr inbounds i32, ptr %5, i64 %i.016
  %6 = load i32, ptr %add.ptr.i, align 4
  %call7 = invoke noundef nonnull align 4 dereferenceable(4) ptr @_ZNSt7__cxx1112basic_stringIwSt11char_traitsIwESaIwEEixEm(ptr noundef nonnull align 8 dereferenceable(32) %agg.result, i64 noundef %i.016)
          to label %invoke.cont6 unwind label %lpad2

invoke.cont6:                                     ; preds = %for.body
  store i32 %6, ptr %call7, align 4
  %inc = add nuw i64 %i.016, 1
  %7 = load ptr, ptr %_M_finish.i.i, align 8
  %8 = load ptr, ptr %this, align 8
  %sub.ptr.lhs.cast.i.i7 = ptrtoint ptr %7 to i64
  %sub.ptr.rhs.cast.i.i8 = ptrtoint ptr %8 to i64
  %sub.ptr.sub.i.i9 = sub i64 %sub.ptr.lhs.cast.i.i7, %sub.ptr.rhs.cast.i.i8
  %sub.ptr.div.i.i10 = ashr exact i64 %sub.ptr.sub.i.i9, 2
  %cmp = icmp ult i64 %inc, %sub.ptr.div.i.i10
  br i1 %cmp, label %for.body, label %nrvo.skipdtor, !llvm.loop !33

lpad:                                             ; preds = %call.i.noexc, %entry
  %9 = landingpad { ptr, i32 }
          cleanup
  br label %lpad.body

lpad.body:                                        ; preds = %lpad.i, %lpad
  %eh.lpad-body = phi { ptr, i32 } [ %9, %lpad ], [ %2, %lpad.i ]
  call void @_ZNSaIwED1Ev(ptr noundef nonnull align 1 dereferenceable(1) %ref.tmp) #18
  br label %eh.resume

lpad2:                                            ; preds = %for.body
  %10 = landingpad { ptr, i32 }
          cleanup
  call void @_ZNSt7__cxx1112basic_stringIwSt11char_traitsIwESaIwEED1Ev(ptr noundef nonnull align 8 dereferenceable(32) %agg.result) #18
  br label %eh.resume

nrvo.skipdtor:                                    ; preds = %invoke.cont6, %invoke.cont
  ret void

eh.resume:                                        ; preds = %lpad2, %lpad.body
  %.pn = phi { ptr, i32 } [ %10, %lpad2 ], [ %eh.lpad-body, %lpad.body ]
  resume { ptr, i32 } %.pn
}